; Function Attrs: nounwind sspstrong uwtable
define internal i64 @enum_minmax(i64 noundef %0) #0 {
  %2 = tail call i64 @rb_ary_hidden_new_fill(i64 noundef 3) #14
  tail call void @rb_gc_writebarrier_unprotect(i64 noundef %2) #14
  %3 = inttoptr i64 %2 to ptr
  %4 = load i64, ptr %3, align 8, !tbaa !20
  %5 = and i64 %4, 8192
  %.not.i.i = icmp eq i64 %5, 0
  br i1 %.not.i.i, label %8, label %6

6:                                                ; preds = %1
  %7 = getelementptr inbounds nuw i8, ptr %3, i64 16
  br label %RARRAY_PTR.exit

8:                                                ; preds = %1
  %9 = getelementptr inbounds nuw i8, ptr %3, i64 32
  %10 = load ptr, ptr %9, align 8, !tbaa !22
  br label %RARRAY_PTR.exit

RARRAY_PTR.exit:                                  ; preds = %6, %8
  %.0.i.i = phi ptr [ %7, %6 ], [ %10, %8 ]
  store i64 36, ptr %.0.i.i, align 8, !tbaa !75
  %11 = getelementptr inbounds nuw i8, ptr %.0.i.i, i64 16
  store i64 36, ptr %11, align 8, !tbaa !77
  %12 = tail call i32 @rb_block_given_p() #14
  %.not = icmp eq i32 %12, 0
  br i1 %.not, label %35, label %13

13:                                               ; preds = %RARRAY_PTR.exit
  %14 = tail call i64 @rb_block_call(i64 noundef %0, i64 noundef 3073, i32 noundef 0, ptr noundef null, ptr noundef nonnull @minmax_ii, i64 noundef %2) #14
  %15 = load i64, ptr %11, align 8, !tbaa !77
  %16 = icmp eq i64 %15, 36
  br i1 %16, label %minmax_ii_update.exit, label %17

17:                                               ; preds = %13
  %18 = load i64, ptr %.0.i.i, align 8, !tbaa !75
  %19 = icmp eq i64 %18, 36
  br i1 %19, label %minmax_ii_update.exit.thread, label %21

minmax_ii_update.exit.thread:                     ; preds = %17
  store i64 %15, ptr %.0.i.i, align 8, !tbaa !75
  %20 = getelementptr inbounds nuw i8, ptr %.0.i.i, i64 8
  store i64 %15, ptr %20, align 8, !tbaa !78
  br label %41

21:                                               ; preds = %17
  %22 = tail call i64 (i32, ...) @rb_yield_values(i32 noundef 2, i64 noundef %15, i64 noundef %18) #14
  %23 = load i64, ptr %.0.i.i, align 8, !tbaa !75
  %24 = tail call i32 @rb_cmpint(i64 noundef %22, i64 noundef %15, i64 noundef %23) #14
  %25 = icmp slt i32 %24, 0
  br i1 %25, label %26, label %27

26:                                               ; preds = %21
  store i64 %15, ptr %.0.i.i, align 8, !tbaa !75
  br label %27

27:                                               ; preds = %26, %21
  %28 = getelementptr inbounds nuw i8, ptr %.0.i.i, i64 8
  %29 = load i64, ptr %28, align 8, !tbaa !78
  %30 = tail call i64 (i32, ...) @rb_yield_values(i32 noundef 2, i64 noundef %15, i64 noundef %29) #14
  %31 = load i64, ptr %28, align 8, !tbaa !78
  %32 = tail call i32 @rb_cmpint(i64 noundef %30, i64 noundef %15, i64 noundef %31) #14
  %33 = icmp sgt i32 %32, 0
  br i1 %33, label %34, label %minmax_ii_update.exit

34:                                               ; preds = %27
  store i64 %15, ptr %28, align 8, !tbaa !78
  br label %minmax_ii_update.exit

35:                                               ; preds = %RARRAY_PTR.exit
  %36 = tail call i64 @rb_block_call(i64 noundef %0, i64 noundef 3073, i32 noundef 0, ptr noundef null, ptr noundef nonnull @minmax_i, i64 noundef %2) #14
  %37 = load i64, ptr %11, align 8, !tbaa !77
  %38 = icmp eq i64 %37, 36
  br i1 %38, label %minmax_ii_update.exit, label %39

39:                                               ; preds = %35
  tail call fastcc void @minmax_i_update(i64 noundef %37, i64 noundef %37, ptr noundef nonnull %.0.i.i)
  br label %minmax_ii_update.exit

minmax_ii_update.exit:                            ; preds = %34, %27, %35, %39, %13
  %.pr = load i64, ptr %.0.i.i, align 8, !tbaa !75
  %40 = icmp eq i64 %.pr, 36
  br i1 %40, label %45, label %minmax_ii_update.exit._crit_edge

minmax_ii_update.exit._crit_edge:                 ; preds = %minmax_ii_update.exit
  %.phi.trans.insert = getelementptr inbounds nuw i8, ptr %.0.i.i, i64 8
  %.pre = load i64, ptr %.phi.trans.insert, align 8, !tbaa !78
  br label %41

41:                                               ; preds = %minmax_ii_update.exit._crit_edge, %minmax_ii_update.exit.thread
  %42 = phi i64 [ %15, %minmax_ii_update.exit.thread ], [ %.pre, %minmax_ii_update.exit._crit_edge ]
  %43 = phi i64 [ %15, %minmax_ii_update.exit.thread ], [ %.pr, %minmax_ii_update.exit._crit_edge ]
  %44 = tail call i64 @rb_assoc_new(i64 noundef %43, i64 noundef %42) #14
  br label %47

45:                                               ; preds = %minmax_ii_update.exit
  %46 = tail call i64 @rb_assoc_new(i64 noundef 4, i64 noundef 4) #14
  br label %47

47:                                               ; preds = %45, %41
  %.0 = phi i64 [ %46, %45 ], [ %44, %41 ]
  ret i64 %.0
}